target datalayout = "e-m:e-p270:32:32-p271:32:32-p272:64:64-i64:64-i128:128-f80:128-n8:16:32:64-S128"
target triple = "x86_64-pc-linux-gnu"

%struct.avifDecoder = type { i32, i32, i32, i32, i32, i32, i32, i32, i32, i32, i32, ptr, i32, i32, i32, %struct.avifImageTiming, i64, double, i64, i32, i32, %struct.avifIOStats, %struct.avifDiagnostics, ptr, ptr, i32 }
%struct.avifImageTiming = type { i64, double, i64, double, i64 }
%struct.avifIOStats = type { i64, i64 }
%struct.avifDiagnostics = type { [256 x i8] }

; Function Attrs: nounwind uwtable
define hidden void @avifDecoderSetIO(ptr noundef %0, ptr noundef %1) #0 {
  %3 = alloca ptr, align 8
  %4 = alloca ptr, align 8
  store ptr %0, ptr %3, align 8
  store ptr %1, ptr %4, align 8
  %5 = load ptr, ptr %3, align 8
  %6 = getelementptr inbounds nuw %struct.avifDecoder, ptr %5, i32 0, i32 23
  %7 = load ptr, ptr %6, align 8
  call void @avifIODestroy(ptr noundef %7)
  %8 = load ptr, ptr %4, align 8
  %9 = load ptr, ptr %3, align 8
  %10 = getelementptr inbounds nuw %struct.avifDecoder, ptr %9, i32 0, i32 23
  store ptr %8, ptr %10, align 8
  ret void
}

; Function Attrs: nounwind uwtable
define hidden i32 @avifDecoderRead(ptr noundef %0, ptr noundef %1) #0 {
  %3 = alloca i32, align 4
  %4 = alloca ptr, align 8
  %5 = alloca ptr, align 8
  %6 = alloca i32, align 4
  store ptr %0, ptr %4, align 8
  store ptr %1, ptr %5, align 8
  %7 = load ptr, ptr %4, align 8
  %8 = call i32 @avifDecoderParse(ptr noundef %7)
  store i32 %8, ptr %6, align 4
  %9 = load i32, ptr %6, align 4
  %10 = icmp ne i32 %9, 0
  br i1 %10, label %11, label %13

11:                                               ; preds = %2
  %12 = load i32, ptr %6, align 4
  store i32 %12, ptr %3, align 4
  br label %26

13:                                               ; preds = %2
  %14 = load ptr, ptr %4, align 8
  %15 = call i32 @avifDecoderNextImage(ptr noundef %14)
  store i32 %15, ptr %6, align 4
  %16 = load i32, ptr %6, align 4
  %17 = icmp ne i32 %16, 0
  br i1 %17, label %18, label %20

18:                                               ; preds = %13
  %19 = load i32, ptr %6, align 4
  store i32 %19, ptr %3, align 4
  br label %26

20:                                               ; preds = %13
  %21 = load ptr, ptr %5, align 8
  %22 = load ptr, ptr %4, align 8
  %23 = getelementptr inbounds nuw %struct.avifDecoder, ptr %22, i32 0, i32 11
  %24 = load ptr, ptr %23, align 8
  %25 = call i32 @avifImageCopy(ptr noundef %21, ptr noundef %24, i32 noundef 255)
  store i32 %25, ptr %3, align 4
  br label %26

26:                                               ; preds = %20, %18, %11
  %27 = load i32, ptr %3, align 4
  ret i32 %27
}

; Function Attrs: nounwind uwtable
define hidden i32 @avifDecoderSetIOFile(ptr noundef %0, ptr noundef %1) #0 {
  %3 = alloca i32, align 4
  %4 = alloca ptr, align 8
  %5 = alloca ptr, align 8
  %6 = alloca ptr, align 8
  store ptr %0, ptr %4, align 8
  store ptr %1, ptr %5, align 8
  %7 = load ptr, ptr %5, align 8
  %8 = call ptr @avifIOCreateFileReader(ptr noundef %7)
  store ptr %8, ptr %6, align 8
  %9 = load ptr, ptr %6, align 8
  %10 = icmp ne ptr %9, null
  br i1 %10, label %12, label %11

11:                                               ; preds = %2
  store i32 22, ptr %3, align 4
  br label %15

12:                                               ; preds = %2
  %13 = load ptr, ptr %4, align 8
  %14 = load ptr, ptr %6, align 8
  call void @avifDecoderSetIO(ptr noundef %13, ptr noundef %14)
  store i32 0, ptr %3, align 4
  br label %15

15:                                               ; preds = %12, %11
  %16 = load i32, ptr %3, align 4
  ret i32 %16
}

; Function Attrs: nounwind uwtable
define hidden i32 @avifDecoderReadFile(ptr noundef %0, ptr noundef %1, ptr noundef %2) #0 {
  %4 = alloca i32, align 4
  %5 = alloca ptr, align 8
  %6 = alloca ptr, align 8
  %7 = alloca ptr, align 8
  %8 = alloca i32, align 4
  store ptr %0, ptr %5, align 8
  store ptr %1, ptr %6, align 8
  store ptr %2, ptr %7, align 8
  %9 = load ptr, ptr %5, align 8
  %10 = getelementptr inbounds nuw %struct.avifDecoder, ptr %9, i32 0, i32 22
  call void @avifDiagnosticsClearError(ptr noundef %10)
  %11 = load ptr, ptr %5, align 8
  %12 = load ptr, ptr %7, align 8
  %13 = call i32 @avifDecoderSetIOFile(ptr noundef %11, ptr noundef %12)
  store i32 %13, ptr %8, align 4
  %14 = load i32, ptr %8, align 4
  %15 = icmp ne i32 %14, 0
  br i1 %15, label %16, label %18

16:                                               ; preds = %3
  %17 = load i32, ptr %8, align 4
  store i32 %17, ptr %4, align 4
  br label %22

18:                                               ; preds = %3
  %19 = load ptr, ptr %5, align 8
  %20 = load ptr, ptr %6, align 8
  %21 = call i32 @avifDecoderRead(ptr noundef %19, ptr noundef %20)
  store i32 %21, ptr %4, align 4
  br label %22

22:                                               ; preds = %18, %16
  %23 = load i32, ptr %4, align 4
  ret i32 %23
}