; Function Attrs: nounwind uwtable
define hidden i32 @avifDecoderReadFile(ptr noundef %0, ptr noundef %1, ptr noundef %2) local_unnamed_addr #0 {
  %4 = getelementptr inbounds nuw i8, ptr %0, i64 160
  tail call void @avifDiagnosticsClearError(ptr noundef nonnull %4) #13
  %5 = tail call ptr @avifIOCreateFileReader(ptr noundef %2) #13
  %.not.i = icmp eq ptr %5, null
  br i1 %.not.i, label %avifDecoderSetIOFile.exit, label %6

6:                                                ; preds = %3
  %7 = getelementptr inbounds nuw i8, ptr %0, i64 416
  %8 = load ptr, ptr %7, align 8
  tail call void @avifIODestroy(ptr noundef %8) #13
  store ptr %5, ptr %7, align 8
  %9 = tail call i32 @avifDecoderParse(ptr noundef nonnull %0)
  %.not.i8 = icmp eq i32 %9, 0
  br i1 %.not.i8, label %10, label %avifDecoderSetIOFile.exit

10:                                               ; preds = %6
  %11 = tail call i32 @avifDecoderNextImage(ptr noundef nonnull %0)
  %.not10.i = icmp eq i32 %11, 0
  br i1 %.not10.i, label %12, label %avifDecoderSetIOFile.exit

12:                                               ; preds = %10
  %13 = getelementptr inbounds nuw i8, ptr %0, i64 48
  %14 = load ptr, ptr %13, align 8
  %15 = tail call i32 @avifImageCopy(ptr noundef %1, ptr noundef %14, i32 noundef 255) #13
  br label %avifDecoderSetIOFile.exit

avifDecoderSetIOFile.exit:                        ; preds = %12, %10, %6, %3
  %.0 = phi i32 [ 22, %3 ], [ %15, %12 ], [ %9, %6 ], [ %11, %10 ]
  ret i32 %.0
}